-----BEGIN ENCRYPTED PRIVATE KEY-----
MIIFHDBOBgkqhkiG9w0BBQ0wQTApBgkqhkiG9w0BBQwwHAQIEkgYf5VhrJUCAggA
MAwGCCqGSIb3DQIJBQAwFAYIKoZIhvcNAwcECPTunEWTYbspBIIEyD4Qy1WE44vA
FR7YOP63aaObY9RRWhohDfnFcS1GAWI3fCwBgVAs9032leV8jPEi33u1ecUNC67M
8ss0H4/BJ91r7UQa5ByBfrwpUfu3BUeBiRBVXOQTGExJ/ThEw0XzwDSZ5qt+dDdd
EBUpWYPtOcugWgLTU0wlWlR8BhoRaqhQZfMxIED0PBAYRjUEmkarOVkceUQMZEsN
2j+RUYCC+W3BXx0FeSct/CtSLnPVmJrwArsCj3lIBvPBeu7tTLiW2TH4MbUi/Uhp
/kbLFJATvCVe+3MZnV88eM1PXrVfuXvLyYpINJSPmUi0TDdfiNQUGcbohJV5XZgK
Q5cGFoDwk+i4oAR4sspSN9Av9O+1W7PM10LHW9rHD/ulSK/bSk0J2soTmQSyNvcC
WKmDND2G0QJSERIuVRdJ/bBBs+ucwsrqLa7fM7nIMLbI+w3EZ+/QVJj+qsf4XiMQ
aY05nzzYtAOCFvlEQI+zLSSoSZkT2prP3MLeRhTlTg/zs8klMn5cr3EiqtLSPSHR
T9xdIS71UOEOFIthYY8lq7x9nIEpGod9FO+FiQXQGqaT7qwNOxjpThT4cxFoky0k
o0neFWZI4AlMKk5/mQ2xT2aTPEt0bc/Gpnplu5YByCL7mGIXVD7LENz81jvW8MUg
ZMjdVIDPq7ixJ388DLT42P0V+Y20y7b5mq+NO7dRF7uCGT0Pm+Xr/pI7zcXwyEQw
ooNZ0nTLawA/mxccdig/THLMAmMG2LkSsOLAbc1JOvIfS1LJgMQ5BW+Pmn+wrbwj
adEWY+CHs0z7Yu0LJTocfUff01SXcvkrRMEmuPTTM936X0qtkOJU1r36CC9NvmFl
bbnTttKAxhrzzYyVcbWMH4v4p3+uh5LkVnGjwZd4LsKu0StUx4m9cEQoBfMK1c0u
AjS/EcPc+brcNn9jAAUCpMUB7vf+z4vFSYzL9/1EoL/qxbwk4umurx2zKoBavTdG
WdTk9W0RvUwibF7Gj0XaazQUMFcbZuFfu2BPn9v3xeXYBofjQRasLTDIiemeVT/2
URXSWx4Yplfcsksq2W+knfoVuZrNjix+vlFA94WzcbFAeU6fsOvFThlJv2zKm8ga
Ye/kjcK9iXdobLNfH2MIuVTZhh08OAtleWKmw+GtQra2j4WCkYM6Em0Ghh2aan4L
EG6I0xfmfLzOa9ZmlaH4OYMe6/v8M+dTOGY9IXIOAT4ypIU1VKOuh5uNmJtFdToe
iyAAAGdv5DNHnT45ofWv68/QysPahL1i5te9JPMZjD51vclL8bJ7INPzREsz90nc
ENdcLZ0grdKu3M6cS2llDgAFLJXbqNcNYnvyrYrf+DGpeb0HBn8sNfx1x233zg7P
P/jDn0Ok+FNL5GA5PXNgro67wiEGwq7e0aY1rQDPw/k2SkIo3MsvZqJ4LvgDc9ym
oYxxORXt3dw7TLq8hIUq0gGc5XFQvelN3XLclZx0abTobgKU+fHKNpjl9GyNAdrT
Q9hDr3Goarz/TzQcSSYTKhEWZ1xW9IbCDV5mvzDSxsmPndZBuXjt8EfLG0FhSia1
+ZcF0p7W0QZDAwuQMbNkWyW25QZLhMjh/C9z/T2hq2m1XxBPuTjEwLTLsJ0Y7t7N
i620Lrm4jR9q7gNwILUxtQ==
-----END ENCRYPTED PRIVATE KEY-----
Certificate:
    Data:
        Version: 3 (0x2)
        Serial Number: 1 (0x1)
        Signature Algorithm: sha1WithRSAEncryption
        Issuer: DC=org, DC=simple, O=Simple Inc, OU=Simple Signing CA, CN=Simple Signing CA
        Validity
            Not Before: Dec  2 08:04:29 2023 GMT
            Not After : Dec  1 08:04:29 2025 GMT
        Subject: DC=org, DC=simple, O=Simple Inc, CN=Fred Flintstone
        Subject Public Key Info:
            Public Key Algorithm: rsaEncryption
                Public-Key: (2048 bit)
                Modulus:
                    00:a5:e3:3f:01:f5:21:5c:09:19:59:10:87:e4:0b:
                    5e:95:d1:7c:a5:79:85:ac:84:a0:69:fc:cc:02:98:
                    77:7e:a4:08:ee:c0:e0:ce:58:42:c6:20:e8:c1:1d:
                    e7:06:03:bd:fa:f3:eb:8c:d0:ab:d6:22:46:5e:88:
                    3f:c8:2c:b4:cc:6c:a5:f3:f1:b6:34:e2:4e:12:c1:
                    48:70:33:6b:a0:cc:1a:5e:b1:fa:0e:a1:08:98:e8:
                    01:ad:f7:af:85:1a:a7:6b:cf:53:81:92:82:86:05:
                    1f:76:3d:53:89:16:c0:1f:5c:44:22:7a:9f:1f:9f:
                    2d:e8:59:7d:c0:2f:80:52:cf:1d:15:e6:5c:f0:9d:
                    38:28:c2:74:d8:ba:27:ec:1e:e6:ab:37:80:dd:cf:
                    5d:e3:81:9a:01:ac:e7:15:e5:64:5a:85:e3:ef:7a:
                    f6:f0:9a:67:fa:44:36:0f:aa:c9:53:c4:f3:35:a7:
                    f0:1d:4b:30:76:77:4e:ed:bb:db:27:01:89:17:f0:
                    2d:66:ec:44:18:f9:9d:de:d7:d0:aa:9f:0f:f6:ad:
                    9e:55:80:d4:95:2e:1e:13:cc:b9:fb:95:b0:9f:f9:
                    c4:ad:ba:ad:59:54:14:a5:ef:53:a5:b0:eb:17:b5:
                    e8:4f:9e:16:25:6c:b6:ee:31:10:99:08:16:25:14:
                    55:f5
                Exponent: 65537 (0x10001)
        X509v3 extensions:
            X509v3 Key Usage: critical
                Digital Signature, Key Encipherment
            X509v3 Basic Constraints: 
                CA:FALSE
            X509v3 Extended Key Usage: 
                E-mail Protection, TLS Web Client Authentication
            X509v3 Subject Key Identifier: 
                66:96:CB:61:00:E9:02:5D:FF:96:94:0C:87:09:66:1A:1E:C2:21:D7
            X509v3 Authority Key Identifier: 
                E8:36:BA:AC:0E:A5:DF:38:D8:53:4F:A4:E8:62:17:B6:04:54:F4:52
            X509v3 Subject Alternative Name: 
                email:fred@simple.org
    Signature Algorithm: sha1WithRSAEncryption
    Signature Value:
        59:d5:23:1a:d8:f1:21:a0:81:4d:83:65:e4:c5:11:08:90:fb:
        95:5a:41:59:3b:18:c3:29:5c:58:11:44:b1:a8:cb:0c:7d:e8:
        51:ca:e2:50:fa:8c:66:8d:42:1f:51:80:ae:f6:57:1f:fb:57:
        40:80:82:65:0c:5c:6f:46:97:61:52:09:a8:fa:dc:37:97:85:
        ec:e8:bf:de:90:55:8a:d1:1c:1b:d9:cc:82:cc:fa:9e:bc:19:
        d0:05:31:c1:72:ac:fd:bb:8e:86:44:9b:41:7c:44:69:c1:47:
        b0:eb:5a:eb:3c:55:a7:6d:1a:04:22:62:88:84:9e:1a:8f:c5:
        74:05:ef:bd:87:c1:86:d7:67:31:da:66:12:06:62:51:d4:3d:
        08:c7:4a:72:07:22:2c:d8:c9:65:42:93:0d:4c:db:a2:b5:88:
        ba:30:24:24:b3:03:82:b3:bc:b9:6e:d4:3a:b3:e6:64:a5:08:
        a5:6d:cf:b1:c0:f9:01:8c:96:ca:dc:1d:bb:be:28:c1:c1:e9:
        6d:65:09:b4:72:38:c3:ec:84:54:d6:0d:d8:e6:9c:21:b0:ca:
        4a:e1:e2:c4:70:c0:9e:05:56:91:90:12:75:b0:8f:31:59:e8:
        93:8e:d8:15:42:3f:af:c2:3f:fa:cf:47:2b:5f:b3:05:95:82:
        54:13:2e:2f
-----BEGIN CERTIFICATE-----
MIID6zCCAtOgAwIBAgIBATANBgkqhkiG9w0BAQUFADB6MRMwEQYKCZImiZPyLGQB
GRYDb3JnMRYwFAYKCZImiZPyLGQBGRYGc2ltcGxlMRMwEQYDVQQKDApTaW1wbGUg
SW5jMRowGAYDVQQLDBFTaW1wbGUgU2lnbmluZyBDQTEaMBgGA1UEAwwRU2ltcGxl
IFNpZ25pbmcgQ0EwHhcNMjMxMjAyMDgwNDI5WhcNMjUxMjAxMDgwNDI5WjBcMRMw
EQYKCZImiZPyLGQBGRYDb3JnMRYwFAYKCZImiZPyLGQBGRYGc2ltcGxlMRMwEQYD
VQQKDApTaW1wbGUgSW5jMRgwFgYDVQQDDA9GcmVkIEZsaW50c3RvbmUwggEiMA0G
CSqGSIb3DQEBAQUAA4IBDwAwggEKAoIBAQCl4z8B9SFcCRlZEIfkC16V0XyleYWs
hKBp/MwCmHd+pAjuwODOWELGIOjBHecGA7368+uM0KvWIkZeiD/ILLTMbKXz8bY0
4k4SwUhwM2ugzBpesfoOoQiY6AGt96+FGqdrz1OBkoKGBR92PVOJFsAfXEQiep8f
ny3oWX3AL4BSzx0V5lzwnTgownTYuifsHuarN4Ddz13jgZoBrOcV5WRahePvevbw
mmf6RDYPqslTxPM1p/AdSzB2d07tu9snAYkX8C1m7EQY+Z3e19Cqnw/2rZ5VgNSV
Lh4TzLn7lbCf+cStuq1ZVBSl71OlsOsXtehPnhYlbLbuMRCZCBYlFFX1AgMBAAGj
gZkwgZYwDgYDVR0PAQH/BAQDAgWgMAkGA1UdEwQCMAAwHQYDVR0lBBYwFAYIKwYB
BQUHAwQGCCsGAQUFBwMCMB0GA1UdDgQWBBRmlsthAOkCXf+WlAyHCWYaHsIh1zAf
BgNVHSMEGDAWgBToNrqsDqXfONhTT6ToYhe2BFT0UjAaBgNVHREEEzARgQ9mcmVk
QHNpbXBsZS5vcmcwDQYJKoZIhvcNAQEFBQADggEBAFnVIxrY8SGggU2DZeTFEQiQ
+5VaQVk7GMMpXFgRRLGoywx96FHK4lD6jGaNQh9RgK72Vx/7V0CAgmUMXG9Gl2FS
Caj63DeXhezov96QVYrRHBvZzILM+p68GdAFMcFyrP27joZEm0F8RGnBR7DrWus8
VadtGgQiYoiEnhqPxXQF772HwYbXZzHaZhIGYlHUPQjHSnIHIizYyWVCkw1M26K1
iLowJCSzA4KzvLlu1Dqz5mSlCKVtz7HA+QGMlsrcHbu+KMHB6W1lCbRyOMPshFTW
DdjmnCGwykrh4sRwwJ4FVpGQEnWwjzFZ6JOO2BVCP6/CP/rPRytfswWVglQTLi8=
-----END CERTIFICATE-----
