Certificate:
    Data:
        Version: 3 (0x2)
        Serial Number: 2 (0x2)
        Signature Algorithm: sha1WithRSAEncryption
        Issuer: DC=org, DC=simple, O=Simple Inc, OU=Simple Signing CA, CN=Simple Signing CA
        Validity
            Not Before: Dec  2 08:05:13 2023 GMT
            Not After : Dec  1 08:05:13 2025 GMT
        Subject: DC=org, DC=simple, O=Simple Inc, CN=www.simple.org
        Subject Public Key Info:
            Public Key Algorithm: rsaEncryption
                Public-Key: (2048 bit)
                Modulus:
                    00:b6:fb:79:b7:3f:b6:39:f0:3e:7e:7f:f5:23:9e:
                    c1:68:34:39:3f:eb:99:95:56:ac:2b:bb:31:f1:2f:
                    52:0f:24:09:62:c8:a8:e4:fc:e3:13:9b:71:24:6e:
                    65:70:4d:f5:47:34:be:ff:82:b8:c7:34:ae:1e:5d:
                    c3:79:a8:86:7f:8c:15:d3:df:81:59:59:e4:4a:11:
                    49:24:2d:d9:32:3c:37:45:36:91:84:84:92:84:de:
                    1e:e8:bc:36:8b:75:51:0b:d2:c6:b1:8e:d3:1b:98:
                    6f:15:32:95:c6:bc:cb:dd:7a:2d:1c:5a:5b:ae:3d:
                    d1:08:7a:c1:01:93:91:45:11:60:a1:b5:1e:4b:8a:
                    7a:f0:c5:42:bf:51:87:b7:40:40:e1:3b:44:a7:c7:
                    e1:cf:6c:8b:81:f4:42:da:89:24:11:ff:33:25:ed:
                    b1:d4:d7:b6:18:e8:23:5d:fa:8a:5b:1b:5c:b6:e3:
                    35:ba:98:04:bd:12:dc:43:98:70:4f:10:94:7e:34:
                    18:11:e3:67:94:24:27:41:fa:c9:31:f9:74:61:89:
                    b8:f1:ed:e6:75:0a:d6:a4:9a:d5:d8:06:85:75:44:
                    76:f2:17:e2:08:fa:4a:f4:0e:e0:2f:3d:a1:40:8d:
                    e8:96:44:5f:92:23:4b:ac:96:ea:00:72:42:a6:87:
                    8b:91
                Exponent: 65537 (0x10001)
        X509v3 extensions:
            X509v3 Key Usage: critical
                Digital Signature, Key Encipherment
            X509v3 Basic Constraints: 
                CA:FALSE
            X509v3 Extended Key Usage: 
                TLS Web Server Authentication, TLS Web Client Authentication
            X509v3 Subject Key Identifier: 
                76:8B:5D:08:9F:74:BC:53:A3:CC:CB:CA:CB:E8:35:BA:25:8E:25:D3
            X509v3 Authority Key Identifier: 
                E8:36:BA:AC:0E:A5:DF:38:D8:53:4F:A4:E8:62:17:B6:04:54:F4:52
            X509v3 Subject Alternative Name: 
                DNS:www.simple.org
    Signature Algorithm: sha1WithRSAEncryption
    Signature Value:
        b4:d1:ba:cd:9c:36:87:e6:be:a7:f7:54:36:3a:cc:e9:1b:bf:
        38:7e:7c:0a:06:6c:48:5d:6b:e4:8c:27:c1:0b:16:02:5c:0f:
        16:8e:5a:f0:6e:a5:f2:86:8e:ac:d9:4b:ff:9d:a4:64:df:15:
        09:2f:c9:ed:74:f4:73:04:19:7d:2a:0d:36:36:c3:47:cb:e7:
        dc:fc:f3:a2:e0:fc:13:79:6b:0a:14:d2:8c:ca:00:82:40:3a:
        ab:b1:14:29:64:b6:20:dd:27:42:57:5f:7a:9e:f8:aa:7f:1b:
        15:93:17:07:93:53:c2:c1:e7:13:69:6f:78:81:25:47:35:4a:
        ed:76:0b:6d:9f:35:40:24:b0:37:56:01:54:8e:9a:97:85:8b:
        24:62:82:b9:98:52:36:da:40:00:6f:94:20:57:fc:db:35:c8:
        85:9b:45:20:5e:e7:ee:88:82:e2:8b:ca:b7:2a:62:31:97:f6:
        42:7a:be:a2:44:20:3f:25:ef:84:11:c0:57:14:ca:a8:d0:79:
        a4:93:a7:fb:ce:5c:74:4b:d0:01:20:1b:c5:f7:46:71:a6:05:
        c7:a4:d8:a1:5a:05:66:f6:1d:48:d8:83:c0:11:27:ca:f0:f6:
        dd:17:ec:aa:19:da:4c:29:13:34:04:61:3b:5c:86:f0:f3:78:
        15:08:37:85
-----BEGIN CERTIFICATE-----
MIID6TCCAtGgAwIBAgIBAjANBgkqhkiG9w0BAQUFADB6MRMwEQYKCZImiZPyLGQB
GRYDb3JnMRYwFAYKCZImiZPyLGQBGRYGc2ltcGxlMRMwEQYDVQQKDApTaW1wbGUg
SW5jMRowGAYDVQQLDBFTaW1wbGUgU2lnbmluZyBDQTEaMBgGA1UEAwwRU2ltcGxl
IFNpZ25pbmcgQ0EwHhcNMjMxMjAyMDgwNTEzWhcNMjUxMjAxMDgwNTEzWjBbMRMw
EQYKCZImiZPyLGQBGRYDb3JnMRYwFAYKCZImiZPyLGQBGRYGc2ltcGxlMRMwEQYD
VQQKDApTaW1wbGUgSW5jMRcwFQYDVQQDDA53d3cuc2ltcGxlLm9yZzCCASIwDQYJ
KoZIhvcNAQEBBQADggEPADCCAQoCggEBALb7ebc/tjnwPn5/9SOewWg0OT/rmZVW
rCu7MfEvUg8kCWLIqOT84xObcSRuZXBN9Uc0vv+CuMc0rh5dw3mohn+MFdPfgVlZ
5EoRSSQt2TI8N0U2kYSEkoTeHui8Not1UQvSxrGO0xuYbxUylca8y916LRxaW649
0Qh6wQGTkUURYKG1HkuKevDFQr9Rh7dAQOE7RKfH4c9si4H0QtqJJBH/MyXtsdTX
thjoI136ilsbXLbjNbqYBL0S3EOYcE8QlH40GBHjZ5QkJ0H6yTH5dGGJuPHt5nUK
1qSa1dgGhXVEdvIX4gj6SvQO4C89oUCN6JZEX5IjS6yW6gByQqaHi5ECAwEAAaOB
mDCBlTAOBgNVHQ8BAf8EBAMCBaAwCQYDVR0TBAIwADAdBgNVHSUEFjAUBggrBgEF
BQcDAQYIKwYBBQUHAwIwHQYDVR0OBBYEFHaLXQifdLxTo8zLysvoNboljiXTMB8G
A1UdIwQYMBaAFOg2uqwOpd842FNPpOhiF7YEVPRSMBkGA1UdEQQSMBCCDnd3dy5z
aW1wbGUub3JnMA0GCSqGSIb3DQEBBQUAA4IBAQC00brNnDaH5r6n91Q2OszpG784
fnwKBmxIXWvkjCfBCxYCXA8WjlrwbqXyho6s2Uv/naRk3xUJL8ntdPRzBBl9Kg02
NsNHy+fc/POi4PwTeWsKFNKMygCCQDqrsRQpZLYg3SdCV196nviqfxsVkxcHk1PC
wecTaW94gSVHNUrtdgttnzVAJLA3VgFUjpqXhYskYoK5mFI22kAAb5QgV/zbNciF
m0UgXufuiILii8q3KmIxl/ZCer6iRCA/Je+EEcBXFMqo0Hmkk6f7zlx0S9ABIBvF
90ZxpgXHpNihWgVm9h1I2IPAESfK8PbdF+yqGdpMKRM0BGE7XIbw83gVCDeF
-----END CERTIFICATE-----
